; Function Attrs: nounwind uwtable
define dso_local ptr @node_features_g_get_node_bitmap() local_unnamed_addr #0 {
  %1 = alloca %struct.timeval, align 8
  %2 = alloca %struct.timeval, align 8
  %3 = alloca [20 x i8], align 16
  %4 = alloca i64, align 8
  call void @llvm.lifetime.start.p0(i64 16, ptr nonnull %1) #9
  call void @llvm.lifetime.start.p0(i64 16, ptr nonnull %2) #9
  call void @llvm.lifetime.start.p0(i64 20, ptr nonnull %3) #9
  call void @llvm.memset.p0.i64(ptr noundef nonnull align 16 dereferenceable(20) %3, i8 0, i64 20, i1 false)
  call void @llvm.lifetime.start.p0(i64 8, ptr nonnull %4) #9
  %5 = call i32 @gettimeofday(ptr noundef nonnull %1, ptr noundef null) #9
  %6 = tail call i32 @pthread_mutex_lock(ptr noundef nonnull @g_context_lock) #9
  %.not = icmp eq i32 %6, 0
  br i1 %.not, label %.preheader, label %9

.preheader:                                       ; preds = %0
  %7 = load i32, ptr @g_context_cnt, align 4
  %8 = icmp sgt i32 %7, 0
  br i1 %8, label %.lr.ph, label %._crit_edge

9:                                                ; preds = %0
  %10 = tail call ptr @__errno_location() #10
  store i32 %6, ptr %10, align 4
  tail call void (ptr, ...) @fatal_abort(ptr noundef nonnull @.str.1, ptr noundef nonnull @__func__.node_features_g_get_node_bitmap) #11
  unreachable

11:                                               ; preds = %.lr.ph
  %indvars.iv.next = add nuw nsw i64 %indvars.iv, 1
  %12 = load i32, ptr @g_context_cnt, align 4
  %13 = sext i32 %12 to i64
  %14 = icmp slt i64 %indvars.iv.next, %13
  br i1 %14, label %.lr.ph, label %._crit_edge, !llvm.loop !17

.lr.ph:                                           ; preds = %.preheader, %11
  %indvars.iv = phi i64 [ %indvars.iv.next, %11 ], [ 0, %.preheader ]
  %15 = load ptr, ptr @ops, align 8
  %16 = getelementptr inbounds nuw %struct.node_features_ops, ptr %15, i64 %indvars.iv, i32 5
  %17 = load ptr, ptr %16, align 8
  %18 = tail call ptr %17() #9
  %.not13 = icmp eq ptr %18, null
  br i1 %.not13, label %11, label %._crit_edge

._crit_edge:                                      ; preds = %.lr.ph, %11, %.preheader
  %.1 = phi ptr [ null, %.preheader ], [ null, %11 ], [ %18, %.lr.ph ]
  %19 = tail call i32 @pthread_mutex_unlock(ptr noundef nonnull @g_context_lock) #9
  %.not14 = icmp eq i32 %19, 0
  br i1 %.not14, label %22, label %20

20:                                               ; preds = %._crit_edge
  %21 = tail call ptr @__errno_location() #10
  store i32 %19, ptr %21, align 4
  tail call void (ptr, ...) @fatal_abort(ptr noundef nonnull @.str.7, ptr noundef nonnull @__func__.node_features_g_get_node_bitmap) #11
  unreachable

22:                                               ; preds = %._crit_edge
  %23 = call i32 @gettimeofday(ptr noundef nonnull %2, ptr noundef null) #9
  call void @slurm_diff_tv_str(ptr noundef nonnull %1, ptr noundef nonnull %2, ptr noundef nonnull %3, i32 noundef 20, ptr noundef nonnull @__func__.node_features_g_get_node_bitmap, i64 noundef 0, ptr noundef nonnull %4) #9
  call void @llvm.lifetime.end.p0(i64 8, ptr nonnull %4) #9
  call void @llvm.lifetime.end.p0(i64 20, ptr nonnull %3) #9
  call void @llvm.lifetime.end.p0(i64 16, ptr nonnull %2) #9
  call void @llvm.lifetime.end.p0(i64 16, ptr nonnull %1) #9
  ret ptr %.1
}